target datalayout = "e-m:e-p270:32:32-p271:32:32-p272:64:64-i64:64-i128:128-f80:128-n8:16:32:64-S128"
target triple = "x86_64-pc-linux-gnu"

%struct.recent_settings_tag = type { i32, i32, i32, i32, i32, i32, i32, i32, i32, i32, i32, i32, i32, i32, i32, i32, i32, i32, i32, i32, i32, i32, i32, i32, i32, i32, i32, i32, i32, i32, i32, i32, i32, i32, i32, i32, ptr, ptr, ptr, i32, i32, ptr, ptr, ptr, ptr, ptr, ptr, i32, ptr, ptr, ptr }
%class.QColor = type <{ i32, %"union.QColor::CT", [2 x i8] }>
%"union.QColor::CT" = type { %struct.anon }
%struct.anon = type { i16, i16, i16, i16, i16 }

@recent = external global %struct.recent_settings_tag, align 8
@.str.28 = private unnamed_addr constant [5 x i8] c"%08x\00", align 1

; Function Attrs: mustprogress uwtable
define void @_ZN15MainApplication25storeCustomColorsInRecentEv(ptr noundef nonnull align 8 dereferenceable(216) %0) #4 align 2 {
  %2 = alloca ptr, align 8
  %3 = alloca i32, align 4
  %4 = alloca i32, align 4
  %5 = alloca %class.QColor, align 4
  store ptr %0, ptr %2, align 8
  %6 = call noundef i32 @_ZN12QColorDialog11customCountEv()
  %7 = icmp ne i32 %6, 0
  br i1 %7, label %8, label %30

8:                                                ; preds = %1
  %9 = load ptr, ptr getelementptr inbounds (%struct.recent_settings_tag, ptr @recent, i32 0, i32 48), align 8
  call void @prefs_clear_string_list(ptr noundef %9)
  store ptr null, ptr getelementptr inbounds (%struct.recent_settings_tag, ptr @recent, i32 0, i32 48), align 8
  store i32 0, ptr %3, align 4
  br label %10

10:                                               ; preds = %26, %8
  %11 = load i32, ptr %3, align 4
  %12 = call noundef i32 @_ZN12QColorDialog11customCountEv()
  %13 = icmp slt i32 %11, %12
  br i1 %13, label %14, label %29

14:                                               ; preds = %10
  %15 = load i32, ptr %3, align 4
  %16 = call { i64, i64 } @_ZN12QColorDialog11customColorEi(i32 noundef %15)
  %17 = getelementptr inbounds { i64, i64 }, ptr %5, i32 0, i32 0
  %18 = extractvalue { i64, i64 } %16, 0
  store i64 %18, ptr %17, align 4
  %19 = getelementptr inbounds { i64, i64 }, ptr %5, i32 0, i32 1
  %20 = extractvalue { i64, i64 } %16, 1
  store i64 %20, ptr %19, align 4
  %21 = call noundef i32 @_ZNK6QColor3rgbEv(ptr noundef nonnull align 4 dereferenceable(14) %5) #2
  store i32 %21, ptr %4, align 4
  %22 = load ptr, ptr getelementptr inbounds (%struct.recent_settings_tag, ptr @recent, i32 0, i32 48), align 8
  %23 = load i32, ptr %4, align 4
  %24 = call noalias ptr (ptr, ptr, ...) @wmem_strdup_printf(ptr noundef null, ptr noundef @.str.28, i32 noundef %23)
  %25 = call ptr @g_list_append(ptr noundef %22, ptr noundef %24)
  store ptr %25, ptr getelementptr inbounds (%struct.recent_settings_tag, ptr @recent, i32 0, i32 48), align 8
  br label %26

26:                                               ; preds = %14
  %27 = load i32, ptr %3, align 4
  %28 = add i32 %27, 1
  store i32 %28, ptr %3, align 4
  br label %10, !llvm.loop !11

29:                                               ; preds = %10
  br label %30

30:                                               ; preds = %29, %1
  ret void
}