; Function Attrs: mustprogress uwtable
define void @_ZN15MainApplication25storeCustomColorsInRecentEv(ptr nocapture nonnull readnone align 8 %0) local_unnamed_addr #3 align 2 {
  %2 = alloca %class.QColor, align 8
  %3 = tail call noundef i32 @_ZN12QColorDialog11customCountEv()
  %.not = icmp eq i32 %3, 0
  br i1 %.not, label %.loopexit, label %4

4:                                                ; preds = %1
  %5 = load ptr, ptr getelementptr inbounds (%struct.recent_settings_tag, ptr @recent, i64 0, i32 48), align 8
  tail call void @prefs_clear_string_list(ptr noundef %5)
  store ptr null, ptr getelementptr inbounds (%struct.recent_settings_tag, ptr @recent, i64 0, i32 48), align 8
  %6 = tail call noundef i32 @_ZN12QColorDialog11customCountEv()
  %7 = icmp sgt i32 %6, 0
  br i1 %7, label %.lr.ph, label %.loopexit

.lr.ph:                                           ; preds = %4
  %8 = getelementptr inbounds i8, ptr %2, i64 8
  br label %9

9:                                                ; preds = %.lr.ph, %9
  %.04 = phi i32 [ 0, %.lr.ph ], [ %17, %9 ]
  %10 = call { i64, i64 } @_ZN12QColorDialog11customColorEi(i32 noundef %.04)
  %11 = extractvalue { i64, i64 } %10, 0
  store i64 %11, ptr %2, align 8
  %12 = extractvalue { i64, i64 } %10, 1
  store i64 %12, ptr %8, align 8
  %13 = call noundef i32 @_ZNK6QColor3rgbEv(ptr noundef nonnull align 4 dereferenceable(14) %2) #26
  %14 = load ptr, ptr getelementptr inbounds (%struct.recent_settings_tag, ptr @recent, i64 0, i32 48), align 8
  %15 = call noalias ptr (ptr, ptr, ...) @wmem_strdup_printf(ptr noundef null, ptr noundef nonnull @.str.28, i32 noundef %13)
  %16 = call ptr @g_list_append(ptr noundef %14, ptr noundef %15)
  store ptr %16, ptr getelementptr inbounds (%struct.recent_settings_tag, ptr @recent, i64 0, i32 48), align 8
  %17 = add nuw nsw i32 %.04, 1
  %18 = call noundef i32 @_ZN12QColorDialog11customCountEv()
  %19 = icmp slt i32 %17, %18
  br i1 %19, label %9, label %.loopexit, !llvm.loop !21

.loopexit:                                        ; preds = %9, %4, %1
  ret void
}